; Function Attrs: mustprogress nounwind uwtable
define void @_ZN10SubCircuit6SolverD2Ev(ptr noundef nonnull align 8 captures(none) dereferenceable(16) initializes((0, 8)) %0) unnamed_addr #5 align 2 {
  store ptr getelementptr inbounds nuw inrange(-16, 48) (i8, ptr @_ZTVN10SubCircuit6SolverE, i64 16), ptr %0, align 8, !tbaa !123
  %2 = getelementptr inbounds nuw i8, ptr %0, i64 8
  %3 = load ptr, ptr %2, align 8, !tbaa !162
  %4 = icmp eq ptr %3, null
  br i1 %4, label %6, label %5

5:                                                ; preds = %1
  tail call void @_ZN10SubCircuit12SolverWorkerD2Ev(ptr noundef nonnull align 8 dereferenceable(369) %3) #30
  tail call void @_ZdlPvm(ptr noundef nonnull %3, i64 noundef 376) #34
  br label %6

6:                                                ; preds = %5, %1
  ret void
}